(dp1
S'OriginalConfig'
p2
ccopy_reg
_reconstructor
p3
(cWMCore.Configuration
Configuration
p4
c__builtin__
object
p5
NtRp6
(dp7
S'Site'
p8
g3
(cWMCore.Configuration
ConfigSection
p9
g5
NtRp10
(dp11
S'_internal_skipChecks'
p12
I00
sS'_internal_documentation'
p13
S''
sS'_internal_settings'
p14
c__builtin__
set
p15
((lp16
S'storageSite'
p17
atRp18
sS'_internal_name'
p19
g8
sS'_internal_docstrings'
p20
(dp21
sS'_internal_children'
p22
g15
((ltRp23
sg17
S'T2_IN_TIFR'
p24
sS'_internal_parent_ref'
p25
NsbsS'_internal_sections'
p26
(lp27
S'General'
p28
aS'JobType'
p29
aS'Data'
p30
ag8
aS'User'
p31
aS'Debug'
p32
asg28
g3
(g9
g5
NtRp33
(dp34
S'transferLogs'
p35
I00
sg12
I00
sg13
S''
sg14
g15
((lp36
g35
aS'transferOutputs'
p37
aS'workArea'
p38
aS'requestName'
p39
atRp40
sg19
g28
sg20
(dp41
sg37
I01
sg22
g15
((ltRp42
sg39
S'PbPb2015_pixelReReco_chgdepcorr_std_central_v1'
p43
sg25
Nsg38
S'Prabhat_PbPb2018_LowpT_Dec01_chNN_cent05'
p44
sbsS'_internal_webapps'
p45
(lp46
sg31
g3
(g9
g5
NtRp47
(dp48
g12
I00
sg13
S''
sg14
g15
((ltRp49
sg19
g31
sg20
(dp50
sg22
g15
((ltRp51
sg25
NsbsS'_internal_components'
p52
(lp53
sg32
g3
(g9
g5
NtRp54
(dp55
g12
I00
sg13
S''
sg14
g15
((ltRp56
sg19
g32
sg20
(dp57
sg22
g15
((ltRp58
sg25
Nsbsg30
g3
(g9
g5
NtRp59
(dp60
S'inputDataset'
p61
S'/HIMinimumBias3/HIRun2018A-PromptReco-v1/AOD'
p62
sS'outputDatasetTag'
p63
S'Prabhat_PbPb2018_cent05_lowpT_Dec01_chNN_v1'
p64
sg12
I00
sS'splitting'
p65
S'LumiBased'
p66
sS'unitsPerJob'
p67
I14
sg13
S''
sg14
g15
((lp68
g61
ag63
aS'publication'
p69
ag67
ag65
aS'inputDBS'
p70
aS'outLFNDirBase'
p71
aS'totalUnits'
p72
atRp73
sg19
g30
sg70
S'global'
p74
sg20
(dp75
sg22
g15
((ltRp76
sg69
I00
sg71
S'/store/user/prabhat/'
p77
sg25
Nsg72
I-1
sbsg29
g3
(g9
g5
NtRp78
(dp79
g12
I00
sg13
S''
sg14
g15
((lp80
S'psetName'
p81
aS'pluginName'
p82
aS'maxMemoryMB'
p83
atRp84
sg19
g29
sg20
(dp85
sg82
S'Analysis'
p86
sg22
g15
((ltRp87
sg81
S'../cfg/chargedepptcorr_central_cfg.py'
p88
sg25
Nsg83
I4000
sbsbsS'voGroup'
p89
S''
sS'Server'
p90
S'cmsweb.cern.ch'
p91
sS'instance'
p92
S'prod'
p93
sS'RequestName'
p94
V181130_211423:prabhat_crab_PbPb2015_pixelReReco_chgdepcorr_std_central_v1
p95
sS'voRole'
p96
S'NULL'
p97
sS'Port'
p98
S''
s.